target datalayout = "e-m:e-p270:32:32-p271:32:32-p272:64:64-i64:64-i128:128-f80:128-n8:16:32:64-S128"
target triple = "x86_64-pc-linux-gnu"

%"struct.std::_Rb_tree_header" = type { %"struct.std::_Rb_tree_node_base", i64 }
%"struct.std::_Rb_tree_node_base" = type { i32, ptr, ptr, ptr }
%class.MLSceneGLSharedDataContext = type { %class.QGLWidget, ptr, %"class.std::map.16", ptr, i64, i64, i8, [7 x i8], %class.QTimer }
%class.QGLWidget = type { %class.QWidget }
%class.QWidget = type { %class.QObject, %class.QPaintDevice, ptr }
%class.QObject = type { ptr, %class.QScopedPointer }
%class.QScopedPointer = type { ptr }
%class.QPaintDevice = type { ptr, i16, ptr }
%"class.std::map.16" = type { %"class.std::_Rb_tree.17" }
%"class.std::_Rb_tree.17" = type { %"struct.std::_Rb_tree<int, std::pair<const int, vcg::QtThreadSafeGLMeshAttributesMultiViewerBOManager<CMeshO, QGLContext *, MLPerViewGLOptions> *>, std::_Select1st<std::pair<const int, vcg::QtThreadSafeGLMeshAttributesMultiViewerBOManager<CMeshO, QGLContext *, MLPerViewGLOptions> *>>, std::less<int>>::_Rb_tree_impl" }
%"struct.std::_Rb_tree<int, std::pair<const int, vcg::QtThreadSafeGLMeshAttributesMultiViewerBOManager<CMeshO, QGLContext *, MLPerViewGLOptions> *>, std::_Select1st<std::pair<const int, vcg::QtThreadSafeGLMeshAttributesMultiViewerBOManager<CMeshO, QGLContext *, MLPerViewGLOptions> *>>, std::less<int>>::_Rb_tree_impl" = type { %"struct.std::_Rb_tree_key_compare.21", %"struct.std::_Rb_tree_header" }
%"struct.std::_Rb_tree_key_compare.21" = type { %"struct.std::less.22" }
%"struct.std::less.22" = type { i8 }
%class.QTimer = type <{ %class.QObject, i32, i32, i32, i8, [3 x i8] }>
%"struct.std::_Rb_tree_node.151" = type { %"struct.std::_Rb_tree_node_base", %"struct.__gnu_cxx::__aligned_membuf.152" }
%"struct.__gnu_cxx::__aligned_membuf.152" = type { [16 x i8] }
%"struct.std::_Rb_tree_iterator.155" = type { ptr }
%"struct.std::pair.153" = type { i32, ptr }

; Function Attrs: mustprogress nounwind uwtable
define linkonce_odr noundef ptr @_ZN9__gnu_cxx16__aligned_membufISt4pairIKiPN3vcg48QtThreadSafeGLMeshAttributesMultiViewerBOManagerI6CMeshOP10QGLContext18MLPerViewGLOptionsEEEE7_M_addrEv(ptr noundef nonnull align 8 dereferenceable(16) %0) #4 comdat align 2 {
  %2 = alloca ptr, align 8
  store ptr %0, ptr %2, align 8
  %3 = load ptr, ptr %2, align 8
  %4 = getelementptr inbounds %"struct.__gnu_cxx::__aligned_membuf.152", ptr %3, i32 0, i32 0
  ret ptr %4
}

; Function Attrs: mustprogress nounwind uwtable
define linkonce_odr noundef ptr @_ZN9__gnu_cxx16__aligned_membufISt4pairIKiPN3vcg48QtThreadSafeGLMeshAttributesMultiViewerBOManagerI6CMeshOP10QGLContext18MLPerViewGLOptionsEEEE6_M_ptrEv(ptr noundef nonnull align 8 dereferenceable(16) %0) #4 comdat align 2 {
  %2 = alloca ptr, align 8
  store ptr %0, ptr %2, align 8
  %3 = load ptr, ptr %2, align 8
  %4 = call noundef ptr @_ZN9__gnu_cxx16__aligned_membufISt4pairIKiPN3vcg48QtThreadSafeGLMeshAttributesMultiViewerBOManagerI6CMeshOP10QGLContext18MLPerViewGLOptionsEEEE7_M_addrEv(ptr noundef nonnull align 8 dereferenceable(16) %3) #3
  ret ptr %4
}

; Function Attrs: mustprogress nounwind uwtable
define linkonce_odr void @_ZNSt17_Rb_tree_iteratorISt4pairIKiPN3vcg48QtThreadSafeGLMeshAttributesMultiViewerBOManagerI6CMeshOP10QGLContext18MLPerViewGLOptionsEEEEC2EPSt18_Rb_tree_node_base(ptr noundef nonnull align 8 dereferenceable(8) %0, ptr noundef %1) unnamed_addr #4 comdat align 2 {
  %3 = alloca ptr, align 8
  %4 = alloca ptr, align 8
  store ptr %0, ptr %3, align 8
  store ptr %1, ptr %4, align 8
  %5 = load ptr, ptr %3, align 8
  %6 = getelementptr inbounds %"struct.std::_Rb_tree_iterator.155", ptr %5, i32 0, i32 0
  %7 = load ptr, ptr %4, align 8
  store ptr %7, ptr %6, align 8
  ret void
}

; Function Attrs: mustprogress nounwind uwtable
define linkonce_odr noundef ptr @_ZNSt13_Rb_tree_nodeISt4pairIKiPN3vcg48QtThreadSafeGLMeshAttributesMultiViewerBOManagerI6CMeshOP10QGLContext18MLPerViewGLOptionsEEEE9_M_valptrEv(ptr noundef nonnull align 8 dereferenceable(48) %0) #4 comdat align 2 {
  %2 = alloca ptr, align 8
  store ptr %0, ptr %2, align 8
  %3 = load ptr, ptr %2, align 8
  %4 = getelementptr inbounds %"struct.std::_Rb_tree_node.151", ptr %3, i32 0, i32 1
  %5 = call noundef ptr @_ZN9__gnu_cxx16__aligned_membufISt4pairIKiPN3vcg48QtThreadSafeGLMeshAttributesMultiViewerBOManagerI6CMeshOP10QGLContext18MLPerViewGLOptionsEEEE6_M_ptrEv(ptr noundef nonnull align 8 dereferenceable(16) %4) #3
  ret ptr %5
}

; Function Attrs: mustprogress nounwind uwtable
define linkonce_odr ptr @_ZNSt8_Rb_treeIiSt4pairIKiPN3vcg48QtThreadSafeGLMeshAttributesMultiViewerBOManagerI6CMeshOP10QGLContext18MLPerViewGLOptionsEEESt10_Select1stISA_ESt4lessIiESaISA_EE3endEv(ptr noundef nonnull align 8 dereferenceable(48) %0) #4 comdat align 2 {
  %2 = alloca %"struct.std::_Rb_tree_iterator.155", align 8
  %3 = alloca ptr, align 8
  store ptr %0, ptr %3, align 8
  %4 = load ptr, ptr %3, align 8
  %5 = getelementptr inbounds %"class.std::_Rb_tree.17", ptr %4, i32 0, i32 0
  %6 = getelementptr inbounds i8, ptr %5, i64 8
  %7 = getelementptr inbounds %"struct.std::_Rb_tree_header", ptr %6, i32 0, i32 0
  call void @_ZNSt17_Rb_tree_iteratorISt4pairIKiPN3vcg48QtThreadSafeGLMeshAttributesMultiViewerBOManagerI6CMeshOP10QGLContext18MLPerViewGLOptionsEEEEC2EPSt18_Rb_tree_node_base(ptr noundef nonnull align 8 dereferenceable(8) %2, ptr noundef %7) #3
  %8 = getelementptr inbounds %"struct.std::_Rb_tree_iterator.155", ptr %2, i32 0, i32 0
  %9 = load ptr, ptr %8, align 8
  ret ptr %9
}

; Function Attrs: mustprogress nounwind uwtable
define linkonce_odr ptr @_ZNSt8_Rb_treeIiSt4pairIKiPN3vcg48QtThreadSafeGLMeshAttributesMultiViewerBOManagerI6CMeshOP10QGLContext18MLPerViewGLOptionsEEESt10_Select1stISA_ESt4lessIiESaISA_EE5beginEv(ptr noundef nonnull align 8 dereferenceable(48) %0) #4 comdat align 2 {
  %2 = alloca %"struct.std::_Rb_tree_iterator.155", align 8
  %3 = alloca ptr, align 8
  store ptr %0, ptr %3, align 8
  %4 = load ptr, ptr %3, align 8
  %5 = getelementptr inbounds %"class.std::_Rb_tree.17", ptr %4, i32 0, i32 0
  %6 = getelementptr inbounds i8, ptr %5, i64 8
  %7 = getelementptr inbounds %"struct.std::_Rb_tree_header", ptr %6, i32 0, i32 0
  %8 = getelementptr inbounds %"struct.std::_Rb_tree_node_base", ptr %7, i32 0, i32 2
  %9 = load ptr, ptr %8, align 8
  call void @_ZNSt17_Rb_tree_iteratorISt4pairIKiPN3vcg48QtThreadSafeGLMeshAttributesMultiViewerBOManagerI6CMeshOP10QGLContext18MLPerViewGLOptionsEEEEC2EPSt18_Rb_tree_node_base(ptr noundef nonnull align 8 dereferenceable(8) %2, ptr noundef %9) #3
  %10 = getelementptr inbounds %"struct.std::_Rb_tree_iterator.155", ptr %2, i32 0, i32 0
  %11 = load ptr, ptr %10, align 8
  ret ptr %11
}

; Function Attrs: mustprogress uwtable
define void @_ZN26MLSceneGLSharedDataContext20doneCurrentGLContextEP10QGLContext(ptr noundef nonnull align 8 dereferenceable(168) %0, ptr noundef %1) #5 align 2 {
  %3 = alloca ptr, align 8
  %4 = alloca ptr, align 8
  store ptr %0, ptr %3, align 8
  store ptr %1, ptr %4, align 8
  %5 = load ptr, ptr %3, align 8
  call void @_ZN9QGLWidget11doneCurrentEv(ptr noundef nonnull align 8 dereferenceable(48) %5)
  %6 = load ptr, ptr %4, align 8
  %7 = icmp ne ptr %6, null
  br i1 %7, label %8, label %13

8:                                                ; preds = %2
  %9 = load ptr, ptr %4, align 8
  %10 = load ptr, ptr %9, align 8
  %11 = getelementptr inbounds ptr, ptr %10, i64 3
  %12 = load ptr, ptr %11, align 8
  call void %12(ptr noundef nonnull align 8 dereferenceable(16) %9)
  br label %13

13:                                               ; preds = %8, %2
  ret void
}

; Function Attrs: mustprogress nounwind uwtable
define linkonce_odr noundef nonnull align 8 dereferenceable(8) ptr @_ZNSt17_Rb_tree_iteratorISt4pairIKiPN3vcg48QtThreadSafeGLMeshAttributesMultiViewerBOManagerI6CMeshOP10QGLContext18MLPerViewGLOptionsEEEEppEv(ptr noundef nonnull align 8 dereferenceable(8) %0) #4 comdat align 2 {
  %2 = alloca ptr, align 8
  store ptr %0, ptr %2, align 8
  %3 = load ptr, ptr %2, align 8
  %4 = getelementptr inbounds %"struct.std::_Rb_tree_iterator.155", ptr %3, i32 0, i32 0
  %5 = load ptr, ptr %4, align 8
  %6 = call noundef ptr @_ZSt18_Rb_tree_incrementPSt18_Rb_tree_node_base(ptr noundef %5) #23
  %7 = getelementptr inbounds %"struct.std::_Rb_tree_iterator.155", ptr %3, i32 0, i32 0
  store ptr %6, ptr %7, align 8
  ret ptr %3
}

; Function Attrs: mustprogress nounwind uwtable
define linkonce_odr noundef ptr @_ZNKSt17_Rb_tree_iteratorISt4pairIKiPN3vcg48QtThreadSafeGLMeshAttributesMultiViewerBOManagerI6CMeshOP10QGLContext18MLPerViewGLOptionsEEEEptEv(ptr noundef nonnull align 8 dereferenceable(8) %0) #4 comdat align 2 {
  %2 = alloca ptr, align 8
  store ptr %0, ptr %2, align 8
  %3 = load ptr, ptr %2, align 8
  %4 = getelementptr inbounds %"struct.std::_Rb_tree_iterator.155", ptr %3, i32 0, i32 0
  %5 = load ptr, ptr %4, align 8
  %6 = call noundef ptr @_ZNSt13_Rb_tree_nodeISt4pairIKiPN3vcg48QtThreadSafeGLMeshAttributesMultiViewerBOManagerI6CMeshOP10QGLContext18MLPerViewGLOptionsEEEE9_M_valptrEv(ptr noundef nonnull align 8 dereferenceable(48) %5)
  ret ptr %6
}

; Function Attrs: mustprogress nounwind uwtable
define linkonce_odr noundef zeroext i1 @_ZStneRKSt17_Rb_tree_iteratorISt4pairIKiPN3vcg48QtThreadSafeGLMeshAttributesMultiViewerBOManagerI6CMeshOP10QGLContext18MLPerViewGLOptionsEEEESD_(ptr noundef nonnull align 8 dereferenceable(8) %0, ptr noundef nonnull align 8 dereferenceable(8) %1) #4 comdat {
  %3 = alloca ptr, align 8
  %4 = alloca ptr, align 8
  store ptr %0, ptr %3, align 8
  store ptr %1, ptr %4, align 8
  %5 = load ptr, ptr %3, align 8
  %6 = getelementptr inbounds %"struct.std::_Rb_tree_iterator.155", ptr %5, i32 0, i32 0
  %7 = load ptr, ptr %6, align 8
  %8 = load ptr, ptr %4, align 8
  %9 = getelementptr inbounds %"struct.std::_Rb_tree_iterator.155", ptr %8, i32 0, i32 0
  %10 = load ptr, ptr %9, align 8
  %11 = icmp ne ptr %7, %10
  ret i1 %11
}

; Function Attrs: mustprogress nounwind uwtable
define linkonce_odr ptr @_ZNSt3mapIiPN3vcg48QtThreadSafeGLMeshAttributesMultiViewerBOManagerI6CMeshOP10QGLContext18MLPerViewGLOptionsEESt4lessIiESaISt4pairIKiS7_EEE3endEv(ptr noundef nonnull align 8 dereferenceable(48) %0) #4 comdat align 2 {
  %2 = alloca %"struct.std::_Rb_tree_iterator.155", align 8
  %3 = alloca ptr, align 8
  store ptr %0, ptr %3, align 8
  %4 = load ptr, ptr %3, align 8
  %5 = getelementptr inbounds %"class.std::map.16", ptr %4, i32 0, i32 0
  %6 = call ptr @_ZNSt8_Rb_treeIiSt4pairIKiPN3vcg48QtThreadSafeGLMeshAttributesMultiViewerBOManagerI6CMeshOP10QGLContext18MLPerViewGLOptionsEEESt10_Select1stISA_ESt4lessIiESaISA_EE3endEv(ptr noundef nonnull align 8 dereferenceable(48) %5) #3
  %7 = getelementptr inbounds %"struct.std::_Rb_tree_iterator.155", ptr %2, i32 0, i32 0
  store ptr %6, ptr %7, align 8
  %8 = getelementptr inbounds %"struct.std::_Rb_tree_iterator.155", ptr %2, i32 0, i32 0
  %9 = load ptr, ptr %8, align 8
  ret ptr %9
}

; Function Attrs: mustprogress nounwind uwtable
define linkonce_odr ptr @_ZNSt3mapIiPN3vcg48QtThreadSafeGLMeshAttributesMultiViewerBOManagerI6CMeshOP10QGLContext18MLPerViewGLOptionsEESt4lessIiESaISt4pairIKiS7_EEE5beginEv(ptr noundef nonnull align 8 dereferenceable(48) %0) #4 comdat align 2 {
  %2 = alloca %"struct.std::_Rb_tree_iterator.155", align 8
  %3 = alloca ptr, align 8
  store ptr %0, ptr %3, align 8
  %4 = load ptr, ptr %3, align 8
  %5 = getelementptr inbounds %"class.std::map.16", ptr %4, i32 0, i32 0
  %6 = call ptr @_ZNSt8_Rb_treeIiSt4pairIKiPN3vcg48QtThreadSafeGLMeshAttributesMultiViewerBOManagerI6CMeshOP10QGLContext18MLPerViewGLOptionsEEESt10_Select1stISA_ESt4lessIiESaISA_EE5beginEv(ptr noundef nonnull align 8 dereferenceable(48) %5) #3
  %7 = getelementptr inbounds %"struct.std::_Rb_tree_iterator.155", ptr %2, i32 0, i32 0
  store ptr %6, ptr %7, align 8
  %8 = getelementptr inbounds %"struct.std::_Rb_tree_iterator.155", ptr %2, i32 0, i32 0
  %9 = load ptr, ptr %8, align 8
  ret ptr %9
}

; Function Attrs: mustprogress uwtable
define noundef ptr @_ZN26MLSceneGLSharedDataContext20makeCurrentGLContextEv(ptr noundef nonnull align 8 dereferenceable(168) %0) #5 align 2 {
  %2 = alloca ptr, align 8
  %3 = alloca ptr, align 8
  store ptr %0, ptr %2, align 8
  %4 = load ptr, ptr %2, align 8
  %5 = call noundef ptr @_ZN10QGLContext14currentContextEv()
  store ptr %5, ptr %3, align 8
  call void @_ZN9QGLWidget11makeCurrentEv(ptr noundef nonnull align 8 dereferenceable(48) %4)
  %6 = load ptr, ptr %3, align 8
  ret ptr %6
}

; Function Attrs: mustprogress uwtable
define void @_ZN26MLSceneGLSharedDataContext23deAllocateGPUSharedDataEv(ptr noundef nonnull align 8 dereferenceable(168) %0) #5 align 2 {
  %2 = alloca ptr, align 8
  %3 = alloca ptr, align 8
  %4 = alloca %"struct.std::_Rb_tree_iterator.155", align 8
  %5 = alloca %"struct.std::_Rb_tree_iterator.155", align 8
  %6 = alloca ptr, align 8
  store ptr %0, ptr %2, align 8
  %7 = load ptr, ptr %2, align 8
  %8 = call noundef ptr @_ZN26MLSceneGLSharedDataContext20makeCurrentGLContextEv(ptr noundef nonnull align 8 dereferenceable(168) %7)
  store ptr %8, ptr %3, align 8
  %9 = getelementptr inbounds %class.MLSceneGLSharedDataContext, ptr %7, i32 0, i32 2
  %10 = call ptr @_ZNSt3mapIiPN3vcg48QtThreadSafeGLMeshAttributesMultiViewerBOManagerI6CMeshOP10QGLContext18MLPerViewGLOptionsEESt4lessIiESaISt4pairIKiS7_EEE5beginEv(ptr noundef nonnull align 8 dereferenceable(48) %9) #3
  %11 = getelementptr inbounds %"struct.std::_Rb_tree_iterator.155", ptr %4, i32 0, i32 0
  store ptr %10, ptr %11, align 8
  br label %12

12:                                               ; preds = %25, %1
  %13 = getelementptr inbounds %class.MLSceneGLSharedDataContext, ptr %7, i32 0, i32 2
  %14 = call ptr @_ZNSt3mapIiPN3vcg48QtThreadSafeGLMeshAttributesMultiViewerBOManagerI6CMeshOP10QGLContext18MLPerViewGLOptionsEESt4lessIiESaISt4pairIKiS7_EEE3endEv(ptr noundef nonnull align 8 dereferenceable(48) %13) #3
  %15 = getelementptr inbounds %"struct.std::_Rb_tree_iterator.155", ptr %5, i32 0, i32 0
  store ptr %14, ptr %15, align 8
  %16 = call noundef zeroext i1 @_ZStneRKSt17_Rb_tree_iteratorISt4pairIKiPN3vcg48QtThreadSafeGLMeshAttributesMultiViewerBOManagerI6CMeshOP10QGLContext18MLPerViewGLOptionsEEEESD_(ptr noundef nonnull align 8 dereferenceable(8) %4, ptr noundef nonnull align 8 dereferenceable(8) %5) #3
  br i1 %16, label %17, label %27

17:                                               ; preds = %12
  %18 = call noundef ptr @_ZNKSt17_Rb_tree_iteratorISt4pairIKiPN3vcg48QtThreadSafeGLMeshAttributesMultiViewerBOManagerI6CMeshOP10QGLContext18MLPerViewGLOptionsEEEEptEv(ptr noundef nonnull align 8 dereferenceable(8) %4) #3
  %19 = getelementptr inbounds %"struct.std::pair.153", ptr %18, i32 0, i32 1
  %20 = load ptr, ptr %19, align 8
  store ptr %20, ptr %6, align 8
  %21 = call noundef ptr @_ZNKSt17_Rb_tree_iteratorISt4pairIKiPN3vcg48QtThreadSafeGLMeshAttributesMultiViewerBOManagerI6CMeshOP10QGLContext18MLPerViewGLOptionsEEEEptEv(ptr noundef nonnull align 8 dereferenceable(8) %4) #3
  %22 = getelementptr inbounds %"struct.std::pair.153", ptr %21, i32 0, i32 0
  %23 = load i32, ptr %22, align 8
  call void @_ZN26MLSceneGLSharedDataContext25deAllocateTexturesPerMeshEi(ptr noundef nonnull align 8 dereferenceable(168) %7, i32 noundef %23)
  %24 = load ptr, ptr %6, align 8
  call void @_ZN3vcg48QtThreadSafeGLMeshAttributesMultiViewerBOManagerI6CMeshOP10QGLContext18MLPerViewGLOptionsE29removeAllViewsAndDeallocateBOEv(ptr noundef nonnull align 8 dereferenceable(512) %24)
  br label %25

25:                                               ; preds = %17
  %26 = call noundef nonnull align 8 dereferenceable(8) ptr @_ZNSt17_Rb_tree_iteratorISt4pairIKiPN3vcg48QtThreadSafeGLMeshAttributesMultiViewerBOManagerI6CMeshOP10QGLContext18MLPerViewGLOptionsEEEEppEv(ptr noundef nonnull align 8 dereferenceable(8) %4) #3
  br label %12, !llvm.loop !119

27:                                               ; preds = %12
  %28 = load ptr, ptr %3, align 8
  call void @_ZN26MLSceneGLSharedDataContext20doneCurrentGLContextEP10QGLContext(ptr noundef nonnull align 8 dereferenceable(168) %7, ptr noundef %28)
  ret void
}