; Function Attrs: mustprogress uwtable
define void @_ZN26MLSceneGLSharedDataContext23deAllocateGPUSharedDataEv(ptr noundef nonnull align 8 dereferenceable(168) %0) local_unnamed_addr #9 align 2 {
  %2 = tail call noundef ptr @_ZN10QGLContext14currentContextEv()
  tail call void @_ZN9QGLWidget11makeCurrentEv(ptr noundef nonnull align 8 dereferenceable(48) %0)
  %3 = getelementptr inbounds i8, ptr %0, i64 80
  %4 = load ptr, ptr %3, align 8
  %5 = getelementptr inbounds i8, ptr %0, i64 64
  %.not7 = icmp eq ptr %4, %5
  br i1 %.not7, label %._crit_edge, label %.lr.ph

.lr.ph:                                           ; preds = %1, %.lr.ph
  %.sroa.03.08 = phi ptr [ %10, %.lr.ph ], [ %4, %1 ]
  %6 = getelementptr inbounds i8, ptr %.sroa.03.08, i64 32
  %7 = getelementptr inbounds i8, ptr %.sroa.03.08, i64 40
  %8 = load ptr, ptr %7, align 8
  %9 = load i32, ptr %6, align 8
  tail call void @_ZN26MLSceneGLSharedDataContext25deAllocateTexturesPerMeshEi(ptr noundef nonnull align 8 dereferenceable(168) %0, i32 noundef %9)
  tail call void @_ZN3vcg48QtThreadSafeGLMeshAttributesMultiViewerBOManagerI6CMeshOP10QGLContext18MLPerViewGLOptionsE29removeAllViewsAndDeallocateBOEv(ptr noundef nonnull align 8 dereferenceable(512) %8)
  %10 = tail call noundef ptr @_ZSt18_Rb_tree_incrementPSt18_Rb_tree_node_base(ptr noundef %.sroa.03.08) #27
  %.not = icmp eq ptr %10, %5
  br i1 %.not, label %._crit_edge, label %.lr.ph, !llvm.loop !229

._crit_edge:                                      ; preds = %.lr.ph, %1
  tail call void @_ZN9QGLWidget11doneCurrentEv(ptr noundef nonnull align 8 dereferenceable(48) %0)
  %.not.i = icmp eq ptr %2, null
  br i1 %.not.i, label %_ZN26MLSceneGLSharedDataContext20doneCurrentGLContextEP10QGLContext.exit, label %11

11:                                               ; preds = %._crit_edge
  %12 = load ptr, ptr %2, align 8
  %13 = getelementptr inbounds i8, ptr %12, i64 24
  %14 = load ptr, ptr %13, align 8
  tail call void %14(ptr noundef nonnull align 8 dereferenceable(16) %2)
  br label %_ZN26MLSceneGLSharedDataContext20doneCurrentGLContextEP10QGLContext.exit

_ZN26MLSceneGLSharedDataContext20doneCurrentGLContextEP10QGLContext.exit: ; preds = %._crit_edge, %11
  ret void
}